#include <math.h>
#include <stdio.h>
#include <stdlib.h>
#include <string.h>

float jue(float t)
{
	if(t<0)
		t=-t;
	return t;
}
int main()
{
	int n,a[300],shu[300];
	scanf("%d",&n);
	int i;
	float s=0,ave,max,tem;
	for(i=0;i<n;i++)
	{
		scanf("%d",&a[i]);
		s=s+a[i];
	}
	ave=s/n;
	max=jue(a[0]-ave);
	int k=0;//k??
	for(i=1;i<n;i++)
	{
		tem=jue(a[i]-ave);
		if(tem>max)
			max=tem;
	}
	for(i=0;i<n;i++)
	{
		if(jue(a[i]-ave)==max)
		{
			shu[k]=a[i];
			k++;
		}
	}
	int j,t;
	for(i=0;i<k;i++)
	{
		for(j=i;j<k;j++)
		{
			if(shu[i]>shu[j])
			{
				t=shu[i];
				shu[i]=shu[j];
				shu[j]=t;
			}
		}
	}
	for(i=0;i<k-1;i++)
		printf("%d,",shu[i]);
	printf("%d",shu[k-1]);
	return 0;
}

