; ModuleID = '21/157.c'
source_filename = "21/157.c"
target datalayout = "e-m:e-p270:32:32-p271:32:32-p272:64:64-i64:64-f80:128-n8:16:32:64-S128"
target triple = "x86_64-pc-linux-gnu"

@.str = private unnamed_addr constant [3 x i8] c"%d\00", align 1
@.str.1 = private unnamed_addr constant [4 x i8] c"%d,\00", align 1

; Function Attrs: noinline nounwind uwtable
define dso_local float @jue(float %0) #0 {
  %2 = alloca float, align 4
  store float %0, float* %2, align 4
  %3 = load float, float* %2, align 4
  %4 = fcmp olt float %3, 0.000000e+00
  br i1 %4, label %5, label %8

5:                                                ; preds = %1
  %6 = load float, float* %2, align 4
  %7 = fneg float %6
  store float %7, float* %2, align 4
  br label %8

8:                                                ; preds = %5, %1
  %9 = load float, float* %2, align 4
  ret float %9
}

; Function Attrs: noinline nounwind uwtable
define dso_local i32 @main() #0 {
  %1 = alloca i32, align 4
  %2 = alloca i32, align 4
  %3 = alloca [300 x i32], align 16
  %4 = alloca [300 x i32], align 16
  %5 = alloca i32, align 4
  %6 = alloca float, align 4
  %7 = alloca float, align 4
  %8 = alloca float, align 4
  %9 = alloca float, align 4
  %10 = alloca i32, align 4
  %11 = alloca i32, align 4
  %12 = alloca i32, align 4
  store i32 0, i32* %1, align 4
  %13 = call i32 (i8*, ...) @__isoc99_scanf(i8* getelementptr inbounds ([3 x i8], [3 x i8]* @.str, i64 0, i64 0), i32* %2)
  store float 0.000000e+00, float* %6, align 4
  store i32 0, i32* %5, align 4
  br label %14

14:                                               ; preds = %30, %0
  %15 = load i32, i32* %5, align 4
  %16 = load i32, i32* %2, align 4
  %17 = icmp slt i32 %15, %16
  br i1 %17, label %18, label %33

18:                                               ; preds = %14
  %19 = load i32, i32* %5, align 4
  %20 = sext i32 %19 to i64
  %21 = getelementptr inbounds [300 x i32], [300 x i32]* %3, i64 0, i64 %20
  %22 = call i32 (i8*, ...) @__isoc99_scanf(i8* getelementptr inbounds ([3 x i8], [3 x i8]* @.str, i64 0, i64 0), i32* %21)
  %23 = load float, float* %6, align 4
  %24 = load i32, i32* %5, align 4
  %25 = sext i32 %24 to i64
  %26 = getelementptr inbounds [300 x i32], [300 x i32]* %3, i64 0, i64 %25
  %27 = load i32, i32* %26, align 4
  %28 = sitofp i32 %27 to float
  %29 = fadd float %23, %28
  store float %29, float* %6, align 4
  br label %30

30:                                               ; preds = %18
  %31 = load i32, i32* %5, align 4
  %32 = add nsw i32 %31, 1
  store i32 %32, i32* %5, align 4
  br label %14

33:                                               ; preds = %14
  %34 = load float, float* %6, align 4
  %35 = load i32, i32* %2, align 4
  %36 = sitofp i32 %35 to float
  %37 = fdiv float %34, %36
  store float %37, float* %7, align 4
  %38 = getelementptr inbounds [300 x i32], [300 x i32]* %3, i64 0, i64 0
  %39 = load i32, i32* %38, align 16
  %40 = sitofp i32 %39 to float
  %41 = load float, float* %7, align 4
  %42 = fsub float %40, %41
  %43 = call float @jue(float %42)
  store float %43, float* %8, align 4
  store i32 0, i32* %10, align 4
  store i32 1, i32* %5, align 4
  br label %44

44:                                               ; preds = %63, %33
  %45 = load i32, i32* %5, align 4
  %46 = load i32, i32* %2, align 4
  %47 = icmp slt i32 %45, %46
  br i1 %47, label %48, label %66

48:                                               ; preds = %44
  %49 = load i32, i32* %5, align 4
  %50 = sext i32 %49 to i64
  %51 = getelementptr inbounds [300 x i32], [300 x i32]* %3, i64 0, i64 %50
  %52 = load i32, i32* %51, align 4
  %53 = sitofp i32 %52 to float
  %54 = load float, float* %7, align 4
  %55 = fsub float %53, %54
  %56 = call float @jue(float %55)
  store float %56, float* %9, align 4
  %57 = load float, float* %9, align 4
  %58 = load float, float* %8, align 4
  %59 = fcmp ogt float %57, %58
  br i1 %59, label %60, label %62

60:                                               ; preds = %48
  %61 = load float, float* %9, align 4
  store float %61, float* %8, align 4
  br label %62

62:                                               ; preds = %60, %48
  br label %63

63:                                               ; preds = %62
  %64 = load i32, i32* %5, align 4
  %65 = add nsw i32 %64, 1
  store i32 %65, i32* %5, align 4
  br label %44

66:                                               ; preds = %44
  store i32 0, i32* %5, align 4
  br label %67

67:                                               ; preds = %93, %66
  %68 = load i32, i32* %5, align 4
  %69 = load i32, i32* %2, align 4
  %70 = icmp slt i32 %68, %69
  br i1 %70, label %71, label %96

71:                                               ; preds = %67
  %72 = load i32, i32* %5, align 4
  %73 = sext i32 %72 to i64
  %74 = getelementptr inbounds [300 x i32], [300 x i32]* %3, i64 0, i64 %73
  %75 = load i32, i32* %74, align 4
  %76 = sitofp i32 %75 to float
  %77 = load float, float* %7, align 4
  %78 = fsub float %76, %77
  %79 = call float @jue(float %78)
  %80 = load float, float* %8, align 4
  %81 = fcmp oeq float %79, %80
  br i1 %81, label %82, label %92

82:                                               ; preds = %71
  %83 = load i32, i32* %5, align 4
  %84 = sext i32 %83 to i64
  %85 = getelementptr inbounds [300 x i32], [300 x i32]* %3, i64 0, i64 %84
  %86 = load i32, i32* %85, align 4
  %87 = load i32, i32* %10, align 4
  %88 = sext i32 %87 to i64
  %89 = getelementptr inbounds [300 x i32], [300 x i32]* %4, i64 0, i64 %88
  store i32 %86, i32* %89, align 4
  %90 = load i32, i32* %10, align 4
  %91 = add nsw i32 %90, 1
  store i32 %91, i32* %10, align 4
  br label %92

92:                                               ; preds = %82, %71
  br label %93

93:                                               ; preds = %92
  %94 = load i32, i32* %5, align 4
  %95 = add nsw i32 %94, 1
  store i32 %95, i32* %5, align 4
  br label %67

96:                                               ; preds = %67
  store i32 0, i32* %5, align 4
  br label %97

97:                                               ; preds = %138, %96
  %98 = load i32, i32* %5, align 4
  %99 = load i32, i32* %10, align 4
  %100 = icmp slt i32 %98, %99
  br i1 %100, label %101, label %141

101:                                              ; preds = %97
  %102 = load i32, i32* %5, align 4
  store i32 %102, i32* %11, align 4
  br label %103

103:                                              ; preds = %134, %101
  %104 = load i32, i32* %11, align 4
  %105 = load i32, i32* %10, align 4
  %106 = icmp slt i32 %104, %105
  br i1 %106, label %107, label %137

107:                                              ; preds = %103
  %108 = load i32, i32* %5, align 4
  %109 = sext i32 %108 to i64
  %110 = getelementptr inbounds [300 x i32], [300 x i32]* %4, i64 0, i64 %109
  %111 = load i32, i32* %110, align 4
  %112 = load i32, i32* %11, align 4
  %113 = sext i32 %112 to i64
  %114 = getelementptr inbounds [300 x i32], [300 x i32]* %4, i64 0, i64 %113
  %115 = load i32, i32* %114, align 4
  %116 = icmp sgt i32 %111, %115
  br i1 %116, label %117, label %133

117:                                              ; preds = %107
  %118 = load i32, i32* %5, align 4
  %119 = sext i32 %118 to i64
  %120 = getelementptr inbounds [300 x i32], [300 x i32]* %4, i64 0, i64 %119
  %121 = load i32, i32* %120, align 4
  store i32 %121, i32* %12, align 4
  %122 = load i32, i32* %11, align 4
  %123 = sext i32 %122 to i64
  %124 = getelementptr inbounds [300 x i32], [300 x i32]* %4, i64 0, i64 %123
  %125 = load i32, i32* %124, align 4
  %126 = load i32, i32* %5, align 4
  %127 = sext i32 %126 to i64
  %128 = getelementptr inbounds [300 x i32], [300 x i32]* %4, i64 0, i64 %127
  store i32 %125, i32* %128, align 4
  %129 = load i32, i32* %12, align 4
  %130 = load i32, i32* %11, align 4
  %131 = sext i32 %130 to i64
  %132 = getelementptr inbounds [300 x i32], [300 x i32]* %4, i64 0, i64 %131
  store i32 %129, i32* %132, align 4
  br label %133

133:                                              ; preds = %117, %107
  br label %134

134:                                              ; preds = %133
  %135 = load i32, i32* %11, align 4
  %136 = add nsw i32 %135, 1
  store i32 %136, i32* %11, align 4
  br label %103

137:                                              ; preds = %103
  br label %138

138:                                              ; preds = %137
  %139 = load i32, i32* %5, align 4
  %140 = add nsw i32 %139, 1
  store i32 %140, i32* %5, align 4
  br label %97

141:                                              ; preds = %97
  store i32 0, i32* %5, align 4
  br label %142

142:                                              ; preds = %153, %141
  %143 = load i32, i32* %5, align 4
  %144 = load i32, i32* %10, align 4
  %145 = sub nsw i32 %144, 1
  %146 = icmp slt i32 %143, %145
  br i1 %146, label %147, label %156

147:                                              ; preds = %142
  %148 = load i32, i32* %5, align 4
  %149 = sext i32 %148 to i64
  %150 = getelementptr inbounds [300 x i32], [300 x i32]* %4, i64 0, i64 %149
  %151 = load i32, i32* %150, align 4
  %152 = call i32 (i8*, ...) @printf(i8* getelementptr inbounds ([4 x i8], [4 x i8]* @.str.1, i64 0, i64 0), i32 %151)
  br label %153

153:                                              ; preds = %147
  %154 = load i32, i32* %5, align 4
  %155 = add nsw i32 %154, 1
  store i32 %155, i32* %5, align 4
  br label %142

156:                                              ; preds = %142
  %157 = load i32, i32* %10, align 4
  %158 = sub nsw i32 %157, 1
  %159 = sext i32 %158 to i64
  %160 = getelementptr inbounds [300 x i32], [300 x i32]* %4, i64 0, i64 %159
  %161 = load i32, i32* %160, align 4
  %162 = call i32 (i8*, ...) @printf(i8* getelementptr inbounds ([3 x i8], [3 x i8]* @.str, i64 0, i64 0), i32 %161)
  ret i32 0
}

declare dso_local i32 @__isoc99_scanf(i8*, ...) #1

declare dso_local i32 @printf(i8*, ...) #1


!llvm.module.flags = !{!0}
!llvm.ident = !{!1}

!0 = !{i32 1, !"wchar_size", i32 4}
!1 = !{!"clang version 10.0.0-4ubuntu1 "}
